; ModuleID = '40/177.c'
source_filename = "40/177.c"
target datalayout = "e-m:e-p270:32:32-p271:32:32-p272:64:64-i64:64-f80:128-n8:16:32:64-S128"
target triple = "x86_64-pc-linux-gnu"

@.str = private unnamed_addr constant [20 x i8] c"%lf %lf %lf %lf %lf\00", align 1
@.str.1 = private unnamed_addr constant [14 x i8] c"Invalid input\00", align 1
@.str.2 = private unnamed_addr constant [5 x i8] c"%.4f\00", align 1

; Function Attrs: noinline nounwind uwtable
define dso_local i32 @main(i32 %0, i8** %1) #0 {
  %3 = alloca i32, align 4
  %4 = alloca i32, align 4
  %5 = alloca i8**, align 8
  %6 = alloca double, align 8
  %7 = alloca double, align 8
  %8 = alloca double, align 8
  %9 = alloca double, align 8
  %10 = alloca double, align 8
  %11 = alloca double, align 8
  %12 = alloca double, align 8
  %13 = alloca double, align 8
  %14 = alloca double, align 8
  %15 = alloca double, align 8
  store i32 0, i32* %3, align 4
  store i32 %0, i32* %4, align 4
  store i8** %1, i8*** %5, align 8
  store double 0x400921FB4D12D84A, double* %14, align 8
  %16 = call i32 (i8*, ...) @__isoc99_scanf(i8* getelementptr inbounds ([20 x i8], [20 x i8]* @.str, i64 0, i64 0), double* %6, double* %7, double* %8, double* %9, double* %11)
  %17 = load double, double* %11, align 8
  %18 = fdiv double %17, 3.600000e+02
  %19 = load double, double* %14, align 8
  %20 = fmul double %18, %19
  store double %20, double* %12, align 8
  %21 = load double, double* %6, align 8
  %22 = load double, double* %7, align 8
  %23 = fadd double %21, %22
  %24 = load double, double* %8, align 8
  %25 = fadd double %23, %24
  %26 = load double, double* %9, align 8
  %27 = fadd double %25, %26
  %28 = fmul double 5.000000e-01, %27
  store double %28, double* %10, align 8
  %29 = load double, double* %10, align 8
  %30 = load double, double* %6, align 8
  %31 = fsub double %29, %30
  %32 = load double, double* %10, align 8
  %33 = load double, double* %7, align 8
  %34 = fsub double %32, %33
  %35 = fmul double %31, %34
  %36 = load double, double* %10, align 8
  %37 = load double, double* %8, align 8
  %38 = fsub double %36, %37
  %39 = fmul double %35, %38
  %40 = load double, double* %10, align 8
  %41 = load double, double* %9, align 8
  %42 = fsub double %40, %41
  %43 = fmul double %39, %42
  %44 = load double, double* %6, align 8
  %45 = load double, double* %7, align 8
  %46 = fmul double %44, %45
  %47 = load double, double* %8, align 8
  %48 = fmul double %46, %47
  %49 = load double, double* %9, align 8
  %50 = fmul double %48, %49
  %51 = load double, double* %12, align 8
  %52 = call double @cos(double %51) #3
  %53 = fmul double %50, %52
  %54 = load double, double* %12, align 8
  %55 = call double @cos(double %54) #3
  %56 = fmul double %53, %55
  %57 = fsub double %43, %56
  store double %57, double* %13, align 8
  %58 = load double, double* %13, align 8
  %59 = fcmp olt double %58, 0.000000e+00
  br i1 %59, label %60, label %62

60:                                               ; preds = %2
  %61 = call i32 (i8*, ...) @printf(i8* getelementptr inbounds ([14 x i8], [14 x i8]* @.str.1, i64 0, i64 0))
  br label %67

62:                                               ; preds = %2
  %63 = load double, double* %13, align 8
  %64 = call double @sqrt(double %63) #3
  store double %64, double* %15, align 8
  %65 = load double, double* %15, align 8
  %66 = call i32 (i8*, ...) @printf(i8* getelementptr inbounds ([5 x i8], [5 x i8]* @.str.2, i64 0, i64 0), double %65)
  br label %67

67:                                               ; preds = %62, %60
  ret i32 0
}

declare dso_local i32 @__isoc99_scanf(i8*, ...) #1

; Function Attrs: nounwind
declare dso_local double @cos(double) #2

declare dso_local i32 @printf(i8*, ...) #1

; Function Attrs: nounwind
declare dso_local double @sqrt(double) #2


!llvm.module.flags = !{!0}
!llvm.ident = !{!1}

!0 = !{i32 1, !"wchar_size", i32 4}
!1 = !{!"clang version 10.0.0-4ubuntu1 "}
